target datalayout = "e-m:e-p270:32:32-p271:32:32-p272:64:64-i64:64-i128:128-f80:128-n8:16:32:64-S128"
target triple = "x86_64-pc-linux-gnu"

%struct.H264Picture = type { ptr, %struct.ThreadFrame, ptr, ptr, ptr, [2 x ptr], [2 x ptr], ptr, ptr, ptr, [2 x ptr], [2 x i32], i32, i32, i32, i32, i32, [2 x [2 x [32 x i32]]], [2 x [2 x i32]], i32, i32, i32, i32, i32, i32, i32, ptr, i32, i32, i32, ptr, i32 }
%struct.ThreadFrame = type { ptr, [2 x ptr], ptr }
%struct.AVFrame = type { [8 x ptr], [8 x i32], ptr, i32, i32, i32, i32, i32, %struct.AVRational, i64, i64, %struct.AVRational, i32, ptr, i32, i32, [8 x ptr], ptr, i32, ptr, i32, i32, i32, i32, i32, i32, i32, i64, ptr, i32, ptr, ptr, i64, i64, i64, i64, ptr, %struct.AVChannelLayout, i64 }
%struct.AVRational = type { i32, i32 }
%struct.AVChannelLayout = type { i32, i32, %union.anon, ptr }
%union.anon = type { i64 }

@.str = private unnamed_addr constant [30 x i8] c"Assertion %s failed at %s:%d\0A\00", align 1
@.str.2 = private unnamed_addr constant [26 x i8] c"libavcodec/h264_picture.c\00", align 1
@.str.4 = private unnamed_addr constant [20 x i8] c"src->tf.f == src->f\00", align 1

; Function Attrs: nounwind uwtable
define i32 @ff_h264_replace_picture(ptr noundef %0, ptr noundef %1) #0 {
  %3 = alloca i32, align 4
  %4 = alloca ptr, align 8
  %5 = alloca ptr, align 8
  %6 = alloca i32, align 4
  %7 = alloca i32, align 4
  store ptr %0, ptr %4, align 8, !tbaa !4
  store ptr %1, ptr %5, align 8, !tbaa !4
  call void @llvm.lifetime.start.p0(i64 4, ptr %6) #7
  %8 = load ptr, ptr %5, align 8, !tbaa !4
  %9 = getelementptr inbounds nuw %struct.H264Picture, ptr %8, i32 0, i32 0
  %10 = load ptr, ptr %9, align 8, !tbaa !11
  %11 = icmp ne ptr %10, null
  br i1 %11, label %12, label %20

12:                                               ; preds = %2
  %13 = load ptr, ptr %5, align 8, !tbaa !4
  %14 = getelementptr inbounds nuw %struct.H264Picture, ptr %13, i32 0, i32 0
  %15 = load ptr, ptr %14, align 8, !tbaa !11
  %16 = getelementptr inbounds nuw %struct.AVFrame, ptr %15, i32 0, i32 16
  %17 = getelementptr inbounds [8 x ptr], ptr %16, i64 0, i64 0
  %18 = load ptr, ptr %17, align 8, !tbaa !19
  %19 = icmp ne ptr %18, null
  br i1 %19, label %22, label %20

20:                                               ; preds = %12, %2
  %21 = load ptr, ptr %4, align 8, !tbaa !4
  call void @ff_h264_unref_picture(ptr noundef %21)
  store i32 0, ptr %3, align 4
  store i32 1, ptr %7, align 4
  br label %76

22:                                               ; preds = %12
  br label %23

23:                                               ; preds = %22
  %24 = load ptr, ptr %5, align 8, !tbaa !4
  %25 = getelementptr inbounds nuw %struct.H264Picture, ptr %24, i32 0, i32 1
  %26 = getelementptr inbounds nuw %struct.ThreadFrame, ptr %25, i32 0, i32 0
  %27 = load ptr, ptr %26, align 8, !tbaa !24
  %28 = load ptr, ptr %5, align 8, !tbaa !4
  %29 = getelementptr inbounds nuw %struct.H264Picture, ptr %28, i32 0, i32 0
  %30 = load ptr, ptr %29, align 8, !tbaa !11
  %31 = icmp eq ptr %27, %30
  br i1 %31, label %33, label %32

32:                                               ; preds = %23
  call void (ptr, i32, ptr, ...) @av_log(ptr noundef null, i32 noundef 0, ptr noundef @.str, ptr noundef @.str.4, ptr noundef @.str.2, i32 noundef 144)
  call void @abort() #8
  unreachable

33:                                               ; preds = %23
  br label %34

34:                                               ; preds = %33
  br label %35

35:                                               ; preds = %34
  %36 = load ptr, ptr %4, align 8, !tbaa !4
  %37 = getelementptr inbounds nuw %struct.H264Picture, ptr %36, i32 0, i32 0
  %38 = load ptr, ptr %37, align 8, !tbaa !11
  %39 = load ptr, ptr %4, align 8, !tbaa !4
  %40 = getelementptr inbounds nuw %struct.H264Picture, ptr %39, i32 0, i32 1
  %41 = getelementptr inbounds nuw %struct.ThreadFrame, ptr %40, i32 0, i32 0
  store ptr %38, ptr %41, align 8, !tbaa !24
  %42 = load ptr, ptr %4, align 8, !tbaa !4
  %43 = getelementptr inbounds nuw %struct.H264Picture, ptr %42, i32 0, i32 1
  %44 = load ptr, ptr %5, align 8, !tbaa !4
  %45 = getelementptr inbounds nuw %struct.H264Picture, ptr %44, i32 0, i32 1
  %46 = call i32 @ff_thread_replace_frame(ptr noundef %43, ptr noundef %45)
  store i32 %46, ptr %6, align 4, !tbaa !9
  %47 = load i32, ptr %6, align 4, !tbaa !9
  %48 = icmp slt i32 %47, 0
  br i1 %48, label %49, label %50

49:                                               ; preds = %35
  br label %73

50:                                               ; preds = %35
  %51 = load ptr, ptr %5, align 8, !tbaa !4
  %52 = getelementptr inbounds nuw %struct.H264Picture, ptr %51, i32 0, i32 25
  %53 = load i32, ptr %52, align 4, !tbaa !25
  %54 = icmp ne i32 %53, 0
  br i1 %54, label %55, label %70

55:                                               ; preds = %50
  %56 = load ptr, ptr %4, align 8, !tbaa !4
  %57 = getelementptr inbounds nuw %struct.H264Picture, ptr %56, i32 0, i32 2
  %58 = load ptr, ptr %57, align 8, !tbaa !21
  call void @av_frame_unref(ptr noundef %58)
  %59 = load ptr, ptr %4, align 8, !tbaa !4
  %60 = getelementptr inbounds nuw %struct.H264Picture, ptr %59, i32 0, i32 2
  %61 = load ptr, ptr %60, align 8, !tbaa !21
  %62 = load ptr, ptr %5, align 8, !tbaa !4
  %63 = getelementptr inbounds nuw %struct.H264Picture, ptr %62, i32 0, i32 2
  %64 = load ptr, ptr %63, align 8, !tbaa !21
  %65 = call i32 @av_frame_ref(ptr noundef %61, ptr noundef %64)
  store i32 %65, ptr %6, align 4, !tbaa !9
  %66 = load i32, ptr %6, align 4, !tbaa !9
  %67 = icmp slt i32 %66, 0
  br i1 %67, label %68, label %69

68:                                               ; preds = %55
  br label %73

69:                                               ; preds = %55
  br label %70

70:                                               ; preds = %69, %50
  %71 = load ptr, ptr %4, align 8, !tbaa !4
  %72 = load ptr, ptr %5, align 8, !tbaa !4
  call void @h264_copy_picture_params(ptr noundef %71, ptr noundef %72)
  store i32 0, ptr %3, align 4
  store i32 1, ptr %7, align 4
  br label %76

73:                                               ; preds = %68, %49
  %74 = load ptr, ptr %4, align 8, !tbaa !4
  call void @ff_h264_unref_picture(ptr noundef %74)
  %75 = load i32, ptr %6, align 4, !tbaa !9
  store i32 %75, ptr %3, align 4
  store i32 1, ptr %7, align 4
  br label %76

76:                                               ; preds = %73, %70, %20
  call void @llvm.lifetime.end.p0(i64 4, ptr %6) #7
  %77 = load i32, ptr %3, align 4
  ret i32 %77
}