; Function Attrs: nounwind uwtable
define range(i32 -2147483648, 1) i32 @ff_h264_replace_picture(ptr noundef %0, ptr noundef %1) local_unnamed_addr #0 {
  %3 = load ptr, ptr %1, align 8, !tbaa !4
  %.not = icmp eq ptr %3, null
  br i1 %.not, label %7, label %4

4:                                                ; preds = %2
  %5 = getelementptr inbounds nuw i8, ptr %3, i64 184
  %6 = load ptr, ptr %5, align 8, !tbaa !16
  %.not23 = icmp eq ptr %6, null
  br i1 %.not23, label %7, label %8

7:                                                ; preds = %4, %2
  tail call void @ff_h264_unref_picture(ptr noundef %0)
  br label %31

8:                                                ; preds = %4
  %9 = getelementptr inbounds nuw i8, ptr %1, i64 8
  %10 = load ptr, ptr %9, align 8, !tbaa !19
  %11 = icmp eq ptr %10, %3
  br i1 %11, label %13, label %12

12:                                               ; preds = %8
  tail call void (ptr, i32, ptr, ...) @av_log(ptr noundef null, i32 noundef 0, ptr noundef nonnull @.str, ptr noundef nonnull @.str.4, ptr noundef nonnull @.str.2, i32 noundef 144) #6
  tail call void @abort() #7
  unreachable

13:                                               ; preds = %8
  %14 = load ptr, ptr %0, align 8, !tbaa !4
  %15 = getelementptr inbounds nuw i8, ptr %0, i64 8
  store ptr %14, ptr %15, align 8, !tbaa !19
  %16 = tail call i32 @ff_thread_replace_frame(ptr noundef nonnull %15, ptr noundef nonnull %9) #6
  %17 = icmp slt i32 %16, 0
  br i1 %17, label %30, label %18

18:                                               ; preds = %13
  %19 = getelementptr inbounds nuw i8, ptr %1, i64 716
  %20 = load i32, ptr %19, align 4, !tbaa !20
  %.not24 = icmp eq i32 %20, 0
  br i1 %.not24, label %29, label %21

21:                                               ; preds = %18
  %22 = getelementptr inbounds nuw i8, ptr %0, i64 40
  %23 = load ptr, ptr %22, align 8, !tbaa !18
  tail call void @av_frame_unref(ptr noundef %23) #6
  %24 = load ptr, ptr %22, align 8, !tbaa !18
  %25 = getelementptr inbounds nuw i8, ptr %1, i64 40
  %26 = load ptr, ptr %25, align 8, !tbaa !18
  %27 = tail call i32 @av_frame_ref(ptr noundef %24, ptr noundef %26) #6
  %28 = icmp slt i32 %27, 0
  br i1 %28, label %30, label %29

29:                                               ; preds = %21, %18
  tail call fastcc void @h264_copy_picture_params(ptr noundef nonnull %0, ptr noundef nonnull %1)
  br label %31

30:                                               ; preds = %21, %13
  %.0 = phi i32 [ %16, %13 ], [ %27, %21 ]
  tail call void @ff_h264_unref_picture(ptr noundef nonnull %0)
  br label %31

31:                                               ; preds = %30, %29, %7
  %.019 = phi i32 [ %.0, %30 ], [ 0, %29 ], [ 0, %7 ]
  ret i32 %.019
}